; ModuleID = 'bench/clamav/original/iowrap.c.ll'
source_filename = "bench/clamav/original/iowrap.c.ll"
target datalayout = "e-m:e-p270:32:32-p271:32:32-p272:64:64-i64:64-i128:128-f80:128-n8:16:32:64-S128"
target triple = "x86_64-pc-linux-gnu"

; Function Attrs: mustprogress nofree norecurse nosync nounwind willreturn memory(argmem: readwrite) uwtable
define noundef i32 @cli_memcpy(ptr nocapture noundef writeonly %0, ptr nocapture noundef readonly %1, i64 noundef %2) local_unnamed_addr #0 {
  tail call void @llvm.memcpy.p0.p0.i64(ptr align 1 %0, ptr align 1 %1, i64 %2, i1 false)
  ret i32 0
}

; Function Attrs: mustprogress nocallback nofree nounwind willreturn memory(argmem: readwrite)
declare void @llvm.memcpy.p0.p0.i64(ptr noalias nocapture writeonly, ptr noalias nocapture readonly, i64, i1 immarg) #1


!llvm.module.flags = !{!0, !1, !2, !3}

!0 = !{i32 1, !"wchar_size", i32 4}
!1 = !{i32 8, !"PIC Level", i32 2}
!2 = !{i32 7, !"uwtable", i32 2}
!3 = !{i32 7, !"frame-pointer", i32 2}
